target datalayout = "e-m:e-p270:32:32-p271:32:32-p272:64:64-i64:64-i128:128-f80:128-n8:16:32:64-S128"
target triple = "x86_64-pc-linux-gnu"

%struct.IncrementalBackupInfo = type { ptr, %struct.StringInfoData, ptr, ptr, ptr, ptr }
%struct.StringInfoData = type { ptr, i32, i32, i32 }

@CurrentMemoryContext = external global ptr, align 8

; Function Attrs: inlinehint nounwind uwtable
define internal ptr @MemoryContextSwitchTo(ptr noundef %0) #2 {
  %2 = alloca ptr, align 8
  %3 = alloca ptr, align 8
  store ptr %0, ptr %2, align 8
  call void @llvm.lifetime.start.p0(i64 8, ptr %3) #12
  %4 = load ptr, ptr @CurrentMemoryContext, align 8
  store ptr %4, ptr %3, align 8
  %5 = load ptr, ptr %2, align 8
  store ptr %5, ptr @CurrentMemoryContext, align 8
  %6 = load ptr, ptr %3, align 8
  call void @llvm.lifetime.end.p0(i64 8, ptr %3) #12
  ret ptr %6
}

; Function Attrs: nounwind uwtable
define dso_local void @AppendIncrementalManifestData(ptr noundef %0, ptr noundef %1, i32 noundef %2) #0 {
  %4 = alloca ptr, align 8
  %5 = alloca ptr, align 8
  %6 = alloca i32, align 4
  %7 = alloca ptr, align 8
  store ptr %0, ptr %4, align 8
  store ptr %1, ptr %5, align 8
  store i32 %2, ptr %6, align 4
  call void @llvm.lifetime.start.p0(i64 8, ptr %7) #12
  %8 = load ptr, ptr %4, align 8
  %9 = getelementptr inbounds nuw %struct.IncrementalBackupInfo, ptr %8, i32 0, i32 0
  %10 = load ptr, ptr %9, align 8
  %11 = call ptr @MemoryContextSwitchTo(ptr noundef %10)
  store ptr %11, ptr %7, align 8
  %12 = load ptr, ptr %4, align 8
  %13 = getelementptr inbounds nuw %struct.IncrementalBackupInfo, ptr %12, i32 0, i32 1
  %14 = getelementptr inbounds nuw %struct.StringInfoData, ptr %13, i32 0, i32 1
  %15 = load i32, ptr %14, align 8
  %16 = icmp sgt i32 %15, 1024
  br i1 %16, label %17, label %57

17:                                               ; preds = %3
  %18 = load ptr, ptr %4, align 8
  %19 = getelementptr inbounds nuw %struct.IncrementalBackupInfo, ptr %18, i32 0, i32 1
  %20 = getelementptr inbounds nuw %struct.StringInfoData, ptr %19, i32 0, i32 1
  %21 = load i32, ptr %20, align 8
  %22 = load i32, ptr %6, align 4
  %23 = add i32 %21, %22
  %24 = icmp sgt i32 %23, 131072
  br i1 %24, label %25, label %57

25:                                               ; preds = %17
  %26 = load ptr, ptr %4, align 8
  %27 = getelementptr inbounds nuw %struct.IncrementalBackupInfo, ptr %26, i32 0, i32 5
  %28 = load ptr, ptr %27, align 8
  %29 = load ptr, ptr %4, align 8
  %30 = getelementptr inbounds nuw %struct.IncrementalBackupInfo, ptr %29, i32 0, i32 1
  %31 = getelementptr inbounds nuw %struct.StringInfoData, ptr %30, i32 0, i32 0
  %32 = load ptr, ptr %31, align 8
  %33 = load ptr, ptr %4, align 8
  %34 = getelementptr inbounds nuw %struct.IncrementalBackupInfo, ptr %33, i32 0, i32 1
  %35 = getelementptr inbounds nuw %struct.StringInfoData, ptr %34, i32 0, i32 1
  %36 = load i32, ptr %35, align 8
  %37 = sub i32 %36, 1024
  %38 = sext i32 %37 to i64
  call void @json_parse_manifest_incremental_chunk(ptr noundef %28, ptr noundef %32, i64 noundef %38, i1 noundef zeroext false)
  %39 = load ptr, ptr %4, align 8
  %40 = getelementptr inbounds nuw %struct.IncrementalBackupInfo, ptr %39, i32 0, i32 1
  %41 = getelementptr inbounds nuw %struct.StringInfoData, ptr %40, i32 0, i32 0
  %42 = load ptr, ptr %41, align 8
  %43 = load ptr, ptr %4, align 8
  %44 = getelementptr inbounds nuw %struct.IncrementalBackupInfo, ptr %43, i32 0, i32 1
  %45 = getelementptr inbounds nuw %struct.StringInfoData, ptr %44, i32 0, i32 0
  %46 = load ptr, ptr %45, align 8
  %47 = load ptr, ptr %4, align 8
  %48 = getelementptr inbounds nuw %struct.IncrementalBackupInfo, ptr %47, i32 0, i32 1
  %49 = getelementptr inbounds nuw %struct.StringInfoData, ptr %48, i32 0, i32 1
  %50 = load i32, ptr %49, align 8
  %51 = sub i32 %50, 1024
  %52 = sext i32 %51 to i64
  %53 = getelementptr inbounds i8, ptr %46, i64 %52
  call void @llvm.memmove.p0.p0.i64(ptr align 1 %42, ptr align 1 %53, i64 1025, i1 false)
  %54 = load ptr, ptr %4, align 8
  %55 = getelementptr inbounds nuw %struct.IncrementalBackupInfo, ptr %54, i32 0, i32 1
  %56 = getelementptr inbounds nuw %struct.StringInfoData, ptr %55, i32 0, i32 1
  store i32 1024, ptr %56, align 8
  br label %57

57:                                               ; preds = %25, %17, %3
  %58 = load ptr, ptr %4, align 8
  %59 = getelementptr inbounds nuw %struct.IncrementalBackupInfo, ptr %58, i32 0, i32 1
  %60 = load ptr, ptr %5, align 8
  %61 = load i32, ptr %6, align 4
  call void @appendBinaryStringInfo(ptr noundef %59, ptr noundef %60, i32 noundef %61)
  %62 = load ptr, ptr %7, align 8
  %63 = call ptr @MemoryContextSwitchTo(ptr noundef %62)
  call void @llvm.lifetime.end.p0(i64 8, ptr %7) #12
  ret void
}