; Function Attrs: nounwind uwtable
define dso_local void @AppendIncrementalManifestData(ptr noundef %0, ptr noundef %1, i32 noundef %2) local_unnamed_addr #0 {
  %4 = load ptr, ptr %0, align 8
  %5 = load ptr, ptr @CurrentMemoryContext, align 8
  store ptr %4, ptr @CurrentMemoryContext, align 8
  %6 = getelementptr inbounds nuw i8, ptr %0, i64 8
  %7 = getelementptr inbounds nuw i8, ptr %0, i64 16
  %8 = load i32, ptr %7, align 8
  %9 = icmp sgt i32 %8, 1024
  %10 = add i32 %8, %2
  %11 = icmp sgt i32 %10, 131072
  %or.cond = and i1 %9, %11
  br i1 %or.cond, label %12, label %23

12:                                               ; preds = %3
  %13 = getelementptr inbounds nuw i8, ptr %0, i64 56
  %14 = load ptr, ptr %13, align 8
  %15 = load ptr, ptr %6, align 8
  %16 = add nsw i32 %8, -1024
  %17 = zext nneg i32 %16 to i64
  tail call void @json_parse_manifest_incremental_chunk(ptr noundef %14, ptr noundef %15, i64 noundef %17, i1 noundef zeroext false) #14
  %18 = load ptr, ptr %6, align 8
  %19 = load i32, ptr %7, align 8
  %20 = add i32 %19, -1024
  %21 = sext i32 %20 to i64
  %22 = getelementptr inbounds i8, ptr %18, i64 %21
  tail call void @llvm.memmove.p0.p0.i64(ptr noundef nonnull align 1 dereferenceable(1025) %18, ptr noundef nonnull align 1 dereferenceable(1025) %22, i64 1025, i1 false)
  store i32 1024, ptr %7, align 8
  br label %23

23:                                               ; preds = %12, %3
  tail call void @appendBinaryStringInfo(ptr noundef nonnull %6, ptr noundef %1, i32 noundef %2) #14
  store ptr %5, ptr @CurrentMemoryContext, align 8
  ret void
}